target datalayout = "e-m:e-p270:32:32-p271:32:32-p272:64:64-i64:64-i128:128-f80:128-n8:16:32:64-S128"
target triple = "x86_64-unknown-linux-gnu"

%"class.std::__shared_count" = type { ptr }
%"class.std::shared_ptr.8" = type { %"class.std::__shared_ptr.9" }
%"class.std::__shared_ptr.9" = type { ptr, %"class.std::__shared_count" }
%"class.OpenColorIO_v2_4dev::(anonymous namespace)::GradingToneOpCPU" = type <{ %"class.OpenColorIO_v2_4dev::OpCPU", %"class.std::shared_ptr.8", i32, [4 x i8] }>
%"class.OpenColorIO_v2_4dev::OpCPU" = type { ptr }
%"class.OpenColorIO_v2_4dev::DynamicPropertyImpl" = type <{ %"class.OpenColorIO_v2_4dev::DynamicProperty", i32, i8, [3 x i8] }>
%"class.OpenColorIO_v2_4dev::DynamicProperty" = type { ptr }

; Function Attrs: mustprogress nounwind uwtable
define linkonce_odr hidden noundef ptr @_ZNKSt12__shared_ptrIN19OpenColorIO_v2_4dev30DynamicPropertyGradingToneImplELN9__gnu_cxx12_Lock_policyE2EE3getEv(ptr noundef nonnull align 8 dereferenceable(16) %this) #5 comdat align 2 {
entry:
  %this.addr = alloca ptr, align 8
  store ptr %this, ptr %this.addr, align 8
  %this1 = load ptr, ptr %this.addr, align 8
  %_M_ptr = getelementptr inbounds %"class.std::__shared_ptr.9", ptr %this1, i32 0, i32 0
  %0 = load ptr, ptr %_M_ptr, align 8
  ret ptr %0
}

; Function Attrs: mustprogress nounwind uwtable
define linkonce_odr hidden noundef ptr @_ZNKSt19__shared_ptr_accessIN19OpenColorIO_v2_4dev30DynamicPropertyGradingToneImplELN9__gnu_cxx12_Lock_policyE2ELb0ELb0EE6_M_getEv(ptr noundef nonnull align 1 dereferenceable(1) %this) #5 comdat align 2 {
entry:
  %this.addr = alloca ptr, align 8
  store ptr %this, ptr %this.addr, align 8
  %this1 = load ptr, ptr %this.addr, align 8
  %call = call noundef ptr @_ZNKSt12__shared_ptrIN19OpenColorIO_v2_4dev30DynamicPropertyGradingToneImplELN9__gnu_cxx12_Lock_policyE2EE3getEv(ptr noundef nonnull align 8 dereferenceable(16) %this1) #3
  ret ptr %call
}

; Function Attrs: mustprogress nounwind uwtable
define linkonce_odr hidden noundef zeroext i1 @_ZNK19OpenColorIO_v2_4dev19DynamicPropertyImpl9isDynamicEv(ptr noundef nonnull align 8 dereferenceable(13) %this) #5 comdat align 2 {
entry:
  %this.addr = alloca ptr, align 8
  store ptr %this, ptr %this.addr, align 8
  %this1 = load ptr, ptr %this.addr, align 8
  %m_isDynamic = getelementptr inbounds %"class.OpenColorIO_v2_4dev::DynamicPropertyImpl", ptr %this1, i32 0, i32 2
  %0 = load i8, ptr %m_isDynamic, align 4
  %tobool = trunc i8 %0 to i1
  ret i1 %tobool
}

; Function Attrs: mustprogress nounwind uwtable
define linkonce_odr hidden noundef ptr @_ZNKSt19__shared_ptr_accessIN19OpenColorIO_v2_4dev30DynamicPropertyGradingToneImplELN9__gnu_cxx12_Lock_policyE2ELb0ELb0EEptEv(ptr noundef nonnull align 1 dereferenceable(1) %this) #5 comdat align 2 {
entry:
  %this.addr = alloca ptr, align 8
  store ptr %this, ptr %this.addr, align 8
  %this1 = load ptr, ptr %this.addr, align 8
  %call = call noundef ptr @_ZNKSt19__shared_ptr_accessIN19OpenColorIO_v2_4dev30DynamicPropertyGradingToneImplELN9__gnu_cxx12_Lock_policyE2ELb0ELb0EE6_M_getEv(ptr noundef nonnull align 1 dereferenceable(1) %this1) #3
  ret ptr %call
}

; Function Attrs: mustprogress nounwind uwtable
define internal noundef zeroext i1 @_ZNK19OpenColorIO_v2_4dev12_GLOBAL__N_116GradingToneOpCPU18hasDynamicPropertyENS_19DynamicPropertyTypeE(ptr noundef nonnull align 8 dereferenceable(28) %this, i32 noundef %type) unnamed_addr #5 align 2 {
entry:
  %this.addr = alloca ptr, align 8
  %type.addr = alloca i32, align 4
  %res = alloca i8, align 1
  store ptr %this, ptr %this.addr, align 8
  store i32 %type, ptr %type.addr, align 4
  %this1 = load ptr, ptr %this.addr, align 8
  store i8 0, ptr %res, align 1
  %0 = load i32, ptr %type.addr, align 4
  %cmp = icmp eq i32 %0, 5
  br i1 %cmp, label %if.then, label %if.end

if.then:                                          ; preds = %entry
  %m_gt = getelementptr inbounds %"class.OpenColorIO_v2_4dev::(anonymous namespace)::GradingToneOpCPU", ptr %this1, i32 0, i32 1
  %call = call noundef ptr @_ZNKSt19__shared_ptr_accessIN19OpenColorIO_v2_4dev30DynamicPropertyGradingToneImplELN9__gnu_cxx12_Lock_policyE2ELb0ELb0EEptEv(ptr noundef nonnull align 1 dereferenceable(1) %m_gt) #3
  %call2 = call noundef zeroext i1 @_ZNK19OpenColorIO_v2_4dev19DynamicPropertyImpl9isDynamicEv(ptr noundef nonnull align 8 dereferenceable(13) %call) #3
  %frombool = zext i1 %call2 to i8
  store i8 %frombool, ptr %res, align 1
  br label %if.end

if.end:                                           ; preds = %if.then, %entry
  %1 = load i8, ptr %res, align 1
  %tobool = trunc i8 %1 to i1
  ret i1 %tobool
}